(dp1
S'output'
p2
S"<type 'exceptions.OSError'> ./libmeme.so: cannot open shared object file: No such file or directory"
p3
sS'layer'
p4
S'/vagrant/web2py/applications/memegenerator/controllers/default.py'
p5
sS'code'
p6
S'# -*- coding: utf-8 -*-\nimport ctypes\n# this file is released under public domain and you can use without limitations\n\n#########################################################################\n## This is a sample controller\n## - index is the default action of any application\n## - user is required for authentication and authorization\n## - download is for downloading files uploaded in the db (does streaming)\n#########################################################################\n\ndef index():\n    """\n    example action using the internationalization operator T and flash\n    rendered by views/default/index.html or views/generic.html\n\n    if you need a simple wiki simply replace the two lines below with:\n    return auth.wiki()\n    """\n    session.counter = (session.counter or 0) + 1\n    return dict(message = "", counter=session.counter)\n\n\ndef user():\n    """\n    exposes:\n    http://..../[app]/default/user/login\n    http://..../[app]/default/user/logout\n    http://..../[app]/default/user/register\n    http://..../[app]/default/user/profile\n    http://..../[app]/default/user/retrieve_password\n    http://..../[app]/default/user/change_password\n    http://..../[app]/default/user/bulk_register\n    use @auth.requires_login()\n        @auth.requires_membership(\'group name\')\n        @auth.requires_permission(\'read\',\'table name\',record_id)\n    to decorate functions that need access control\n    also notice there is http://..../[app]/appadmin/manage/auth to allow administrator to manage users\n    """\n    return dict(form=auth())\n\n\n@cache.action()\ndef download():\n    """\n    allows downloading of uploaded files\n    http://..../[app]/default/download/[filename]\n    """\n    return response.download(request, db)\n\n\ndef call():\n    """\n    exposes services. for example:\n    http://..../[app]/default/call/jsonrpc\n    decorate with @services.jsonrpc the functions to expose\n    supports xml, json, xmlrpc, jsonrpc, amfrpc, rss, csv\n    """\n    return service()\n\ndef meme():\n    lib = ctypes.CDLL(\'./libmeme.so\')\n    pfun = lib.makeMeme\n    x = pfun(request.vars.img, \'/memegenerator/static/ex1.jpg\', request.vars.text)\n    return dict()\n\nresponse._vars=response._caller(meme)\n'
p7
sS'snapshot'
p8
(dp9
sS'traceback'
p10
S'Traceback (most recent call last):\n  File "/vagrant/web2py/gluon/restricted.py", line 227, in restricted\n    exec ccode in environment\n  File "/vagrant/web2py/applications/memegenerator/controllers/default.py", line 67, in <module>\n  File "/vagrant/web2py/gluon/globals.py", line 417, in <lambda>\n    self._caller = lambda f: f()\n  File "/vagrant/web2py/applications/memegenerator/controllers/default.py", line 62, in meme\n    lib = ctypes.CDLL(\'./libmeme.so\')\n  File "/usr/lib/python2.7/ctypes/__init__.py", line 365, in __init__\n    self._handle = _dlopen(self._name, mode)\nOSError: ./libmeme.so: cannot open shared object file: No such file or directory\n'
p11
s.